target datalayout = "e-m:e-p270:32:32-p271:32:32-p272:64:64-i64:64-i128:128-f80:128-n8:16:32:64-S128"
target triple = "x86_64-pc-linux-gnu"

%"struct.llvm::DbgVariableFragmentInfo" = type { i64, i64 }
%"class.std::optional" = type { %"struct.std::_Optional_base" }
%"struct.std::_Optional_base" = type { %"struct.std::_Optional_payload" }
%"struct.std::_Optional_payload" = type { %"struct.std::_Optional_payload_base.base", [7 x i8] }
%"struct.std::_Optional_payload_base.base" = type <{ %"union.std::_Optional_payload_base<llvm::DbgVariableFragmentInfo>::_Storage", i8 }>
%"union.std::_Optional_payload_base<llvm::DbgVariableFragmentInfo>::_Storage" = type { %"struct.llvm::DbgVariableFragmentInfo" }
%"class.llvm::DIExpression::expr_op_iterator" = type { %"class.llvm::DIExpression::ExprOperand" }
%"class.llvm::DIExpression::ExprOperand" = type { ptr }
%"struct.std::_Optional_payload_base" = type <{ %"union.std::_Optional_payload_base<llvm::DbgVariableFragmentInfo>::_Storage", i8, [7 x i8] }>

; Function Attrs: mustprogress nounwind uwtable
define linkonce_odr hidden void @_ZNSt22_Optional_payload_baseIN4llvm23DbgVariableFragmentInfoEE8_StorageIS1_Lb1EEC2Ev(ptr noundef nonnull align 8 dereferenceable(16) %0) unnamed_addr #1 comdat align 2 {
  %2 = alloca ptr, align 8
  store ptr %0, ptr %2, align 8
  ret void
}

; Function Attrs: mustprogress nounwind uwtable
define linkonce_odr hidden void @_ZNSt22_Optional_payload_baseIN4llvm23DbgVariableFragmentInfoEE8_StorageIS1_Lb1EEC2IJS1_EEESt10in_place_tDpOT_(ptr noundef nonnull align 8 dereferenceable(16) %0, ptr noundef nonnull align 8 dereferenceable(16) %1) unnamed_addr #1 comdat align 2 {
  %3 = alloca ptr, align 8
  %4 = alloca ptr, align 8
  store ptr %0, ptr %3, align 8
  store ptr %1, ptr %4, align 8
  %5 = load ptr, ptr %3, align 8
  %6 = load ptr, ptr %4, align 8
  call void @llvm.memcpy.p0.p0.i64(ptr align 8 %5, ptr align 8 %6, i64 16, i1 false)
  ret void
}

; Function Attrs: mustprogress nounwind uwtable
define linkonce_odr hidden void @_ZNSt22_Optional_payload_baseIN4llvm23DbgVariableFragmentInfoEEC2Ev(ptr noundef nonnull align 8 dereferenceable(17) %0) unnamed_addr #1 comdat align 2 {
  %2 = alloca ptr, align 8
  store ptr %0, ptr %2, align 8
  %3 = load ptr, ptr %2, align 8
  %4 = getelementptr inbounds nuw %"struct.std::_Optional_payload_base", ptr %3, i32 0, i32 0
  call void @_ZNSt22_Optional_payload_baseIN4llvm23DbgVariableFragmentInfoEE8_StorageIS1_Lb1EEC2Ev(ptr noundef nonnull align 8 dereferenceable(16) %4) #2
  %5 = getelementptr inbounds nuw %"struct.std::_Optional_payload_base", ptr %3, i32 0, i32 1
  store i8 0, ptr %5, align 8
  ret void
}

; Function Attrs: mustprogress nounwind uwtable
define linkonce_odr hidden void @_ZNSt22_Optional_payload_baseIN4llvm23DbgVariableFragmentInfoEEC2IJS1_EEESt10in_place_tDpOT_(ptr noundef nonnull align 8 dereferenceable(17) %0, ptr noundef nonnull align 8 dereferenceable(16) %1) unnamed_addr #1 comdat align 2 {
  %3 = alloca ptr, align 8
  %4 = alloca ptr, align 8
  store ptr %0, ptr %3, align 8
  store ptr %1, ptr %4, align 8
  %5 = load ptr, ptr %3, align 8
  %6 = getelementptr inbounds nuw %"struct.std::_Optional_payload_base", ptr %5, i32 0, i32 0
  %7 = load ptr, ptr %4, align 8
  call void @_ZNSt22_Optional_payload_baseIN4llvm23DbgVariableFragmentInfoEE8_StorageIS1_Lb1EEC2IJS1_EEESt10in_place_tDpOT_(ptr noundef nonnull align 8 dereferenceable(16) %6, ptr noundef nonnull align 8 dereferenceable(16) %7)
  %8 = getelementptr inbounds nuw %"struct.std::_Optional_payload_base", ptr %5, i32 0, i32 1
  store i8 1, ptr %8, align 8
  ret void
}

; Function Attrs: mustprogress nounwind uwtable
define linkonce_odr hidden void @_ZNSt17_Optional_payloadIN4llvm23DbgVariableFragmentInfoELb1ELb1ELb1EEC2Ev(ptr noundef nonnull align 8 dereferenceable(17) %0) unnamed_addr #1 comdat align 2 {
  %2 = alloca ptr, align 8
  store ptr %0, ptr %2, align 8
  %3 = load ptr, ptr %2, align 8
  call void @_ZNSt22_Optional_payload_baseIN4llvm23DbgVariableFragmentInfoEEC2Ev(ptr noundef nonnull align 8 dereferenceable(17) %3) #2
  ret void
}

; Function Attrs: mustprogress nounwind uwtable
define linkonce_odr hidden void @_ZN4llvm12DIExpression11ExprOperandC2EPKm(ptr noundef nonnull align 8 dereferenceable(8) %0, ptr noundef %1) unnamed_addr #1 comdat align 2 {
  %3 = alloca ptr, align 8
  %4 = alloca ptr, align 8
  store ptr %0, ptr %3, align 8
  store ptr %1, ptr %4, align 8
  %5 = load ptr, ptr %3, align 8
  %6 = getelementptr inbounds nuw %"class.llvm::DIExpression::ExprOperand", ptr %5, i32 0, i32 0
  %7 = load ptr, ptr %4, align 8
  store ptr %7, ptr %6, align 8
  ret void
}

; Function Attrs: mustprogress nounwind uwtable
define dso_local noundef i32 @_ZNK4llvm12DIExpression11ExprOperand7getSizeEv(ptr noundef nonnull align 8 dereferenceable(8) %0) #1 align 2 {
  %2 = alloca i32, align 4
  %3 = alloca ptr, align 8
  %4 = alloca i64, align 8
  store ptr %0, ptr %3, align 8
  %5 = load ptr, ptr %3, align 8
  %6 = call noundef i64 @_ZNK4llvm12DIExpression11ExprOperand5getOpEv(ptr noundef nonnull align 8 dereferenceable(8) %5)
  store i64 %6, ptr %4, align 8
  %7 = load i64, ptr %4, align 8
  %8 = icmp uge i64 %7, 112
  br i1 %8, label %9, label %13

9:                                                ; preds = %1
  %10 = load i64, ptr %4, align 8
  %11 = icmp ule i64 %10, 143
  br i1 %11, label %12, label %13

12:                                               ; preds = %9
  store i32 2, ptr %2, align 4
  br label %18

13:                                               ; preds = %9, %1
  %14 = load i64, ptr %4, align 8
  switch i64 %14, label %17 [
    i64 4097, label %15
    i64 4096, label %15
    i64 4102, label %15
    i64 4103, label %15
    i64 146, label %15
    i64 16, label %16
    i64 17, label %16
    i64 148, label %16
    i64 35, label %16
    i64 4098, label %16
    i64 4099, label %16
    i64 4101, label %16
    i64 144, label %16
  ]

15:                                               ; preds = %13, %13, %13, %13, %13
  store i32 3, ptr %2, align 4
  br label %18

16:                                               ; preds = %13, %13, %13, %13, %13, %13, %13, %13
  store i32 2, ptr %2, align 4
  br label %18

17:                                               ; preds = %13
  store i32 1, ptr %2, align 4
  br label %18

18:                                               ; preds = %17, %16, %15, %12
  %19 = load i32, ptr %2, align 4
  ret i32 %19
}

; Function Attrs: mustprogress nounwind uwtable
define linkonce_odr hidden void @_ZNSt17_Optional_payloadIN4llvm23DbgVariableFragmentInfoELb1ELb1ELb1EECI2St22_Optional_payload_baseIS1_EIJS1_EEESt10in_place_tDpOT_(ptr noundef nonnull align 8 dereferenceable(17) %0, ptr noundef nonnull align 8 dereferenceable(16) %1) unnamed_addr #1 comdat align 2 {
  %3 = alloca ptr, align 8
  %4 = alloca ptr, align 8
  store ptr %0, ptr %3, align 8
  store ptr %1, ptr %4, align 8
  %5 = load ptr, ptr %3, align 8
  %6 = load ptr, ptr %4, align 8
  call void @_ZNSt22_Optional_payload_baseIN4llvm23DbgVariableFragmentInfoEEC2IJS1_EEESt10in_place_tDpOT_(ptr noundef nonnull align 8 dereferenceable(17) %5, ptr noundef nonnull align 8 dereferenceable(16) %6)
  ret void
}

; Function Attrs: mustprogress nounwind uwtable
define linkonce_odr hidden noundef ptr @_ZNK4llvm12DIExpression11ExprOperand3getEv(ptr noundef nonnull align 8 dereferenceable(8) %0) #1 comdat align 2 {
  %2 = alloca ptr, align 8
  store ptr %0, ptr %2, align 8
  %3 = load ptr, ptr %2, align 8
  %4 = getelementptr inbounds nuw %"class.llvm::DIExpression::ExprOperand", ptr %3, i32 0, i32 0
  %5 = load ptr, ptr %4, align 8
  ret ptr %5
}

; Function Attrs: mustprogress nounwind uwtable
define linkonce_odr hidden void @_ZNSt14_Optional_baseIN4llvm23DbgVariableFragmentInfoELb1ELb1EEC2Ev(ptr noundef nonnull align 8 dereferenceable(24) %0) unnamed_addr #1 comdat align 2 {
  %2 = alloca ptr, align 8
  store ptr %0, ptr %2, align 8
  %3 = load ptr, ptr %2, align 8
  %4 = getelementptr inbounds nuw %"struct.std::_Optional_base", ptr %3, i32 0, i32 0
  call void @_ZNSt17_Optional_payloadIN4llvm23DbgVariableFragmentInfoELb1ELb1ELb1EEC2Ev(ptr noundef nonnull align 8 dereferenceable(17) %4) #2
  ret void
}

; Function Attrs: mustprogress nounwind uwtable
define linkonce_odr hidden void @_ZN4llvm12DIExpression16expr_op_iterator9incrementEv(ptr noundef nonnull align 8 dereferenceable(8) %0) #1 comdat align 2 {
  %2 = alloca ptr, align 8
  %3 = alloca %"class.llvm::DIExpression::ExprOperand", align 8
  store ptr %0, ptr %2, align 8
  %4 = load ptr, ptr %2, align 8
  %5 = call noundef ptr @_ZNK4llvm12DIExpression16expr_op_iterator7getBaseEv(ptr noundef nonnull align 8 dereferenceable(8) %4)
  %6 = getelementptr inbounds nuw %"class.llvm::DIExpression::expr_op_iterator", ptr %4, i32 0, i32 0
  %7 = call noundef i32 @_ZNK4llvm12DIExpression11ExprOperand7getSizeEv(ptr noundef nonnull align 8 dereferenceable(8) %6)
  %8 = zext i32 %7 to i64
  %9 = getelementptr inbounds i64, ptr %5, i64 %8
  call void @_ZN4llvm12DIExpression11ExprOperandC2EPKm(ptr noundef nonnull align 8 dereferenceable(8) %3, ptr noundef %9)
  %10 = getelementptr inbounds nuw %"class.llvm::DIExpression::expr_op_iterator", ptr %4, i32 0, i32 0
  call void @llvm.memcpy.p0.p0.i64(ptr align 8 %10, ptr align 8 %3, i64 8, i1 false)
  ret void
}

; Function Attrs: mustprogress nounwind uwtable
define linkonce_odr hidden void @_ZNSt14_Optional_baseIN4llvm23DbgVariableFragmentInfoELb1ELb1EEC2IJS1_ETnNSt9enable_ifIX18is_constructible_vIS1_DpT_EEbE4typeELb0EEESt10in_place_tDpOS5_(ptr noundef nonnull align 8 dereferenceable(24) %0, ptr noundef nonnull align 8 dereferenceable(16) %1) unnamed_addr #1 comdat align 2 {
  %3 = alloca ptr, align 8
  %4 = alloca ptr, align 8
  store ptr %0, ptr %3, align 8
  store ptr %1, ptr %4, align 8
  %5 = load ptr, ptr %3, align 8
  %6 = getelementptr inbounds nuw %"struct.std::_Optional_base", ptr %5, i32 0, i32 0
  %7 = load ptr, ptr %4, align 8
  call void @_ZNSt17_Optional_payloadIN4llvm23DbgVariableFragmentInfoELb1ELb1ELb1EECI2St22_Optional_payload_baseIS1_EIJS1_EEESt10in_place_tDpOT_(ptr noundef nonnull align 8 dereferenceable(17) %6, ptr noundef nonnull align 8 dereferenceable(16) %7)
  ret void
}

; Function Attrs: mustprogress nounwind uwtable
define linkonce_odr hidden noundef ptr @_ZNK4llvm12DIExpression16expr_op_iterator7getBaseEv(ptr noundef nonnull align 8 dereferenceable(8) %0) #1 comdat align 2 {
  %2 = alloca ptr, align 8
  store ptr %0, ptr %2, align 8
  %3 = load ptr, ptr %2, align 8
  %4 = getelementptr inbounds nuw %"class.llvm::DIExpression::expr_op_iterator", ptr %3, i32 0, i32 0
  %5 = call noundef ptr @_ZNK4llvm12DIExpression11ExprOperand3getEv(ptr noundef nonnull align 8 dereferenceable(8) %4)
  ret ptr %5
}

; Function Attrs: mustprogress nounwind uwtable
define linkonce_odr hidden void @_ZNSt8optionalIN4llvm23DbgVariableFragmentInfoEEC2ESt9nullopt_t(ptr noundef nonnull align 8 dereferenceable(24) %0) unnamed_addr #1 comdat align 2 {
  %2 = alloca ptr, align 8
  store ptr %0, ptr %2, align 8
  %3 = load ptr, ptr %2, align 8
  call void @_ZNSt14_Optional_baseIN4llvm23DbgVariableFragmentInfoELb1ELb1EEC2Ev(ptr noundef nonnull align 8 dereferenceable(24) %3) #2
  ret void
}

; Function Attrs: mustprogress nounwind uwtable
define linkonce_odr hidden noundef nonnull align 8 dereferenceable(8) ptr @_ZN4llvm12DIExpression16expr_op_iteratorppEv(ptr noundef nonnull align 8 dereferenceable(8) %0) #1 comdat align 2 {
  %2 = alloca ptr, align 8
  store ptr %0, ptr %2, align 8
  %3 = load ptr, ptr %2, align 8
  call void @_ZN4llvm12DIExpression16expr_op_iterator9incrementEv(ptr noundef nonnull align 8 dereferenceable(8) %3)
  ret ptr %3
}

; Function Attrs: mustprogress nounwind uwtable
define linkonce_odr hidden void @_ZNSt8optionalIN4llvm23DbgVariableFragmentInfoEEC2IS1_TnNSt9enable_ifIX7__and_vISt6__not_ISt7is_sameIS2_NSt9remove_cvINSt16remove_referenceIT_E4typeEE4typeEEES5_IS6_ISt10in_place_tSD_EESt16is_constructibleIS1_JS9_EESt14is_convertibleIS9_S1_EEEbE4typeELb1EEEOS9_(ptr noundef nonnull align 8 dereferenceable(24) %0, ptr noundef nonnull align 8 dereferenceable(16) %1) unnamed_addr #1 comdat align 2 {
  %3 = alloca ptr, align 8
  %4 = alloca ptr, align 8
  store ptr %0, ptr %3, align 8
  store ptr %1, ptr %4, align 8
  %5 = load ptr, ptr %3, align 8
  %6 = load ptr, ptr %4, align 8
  call void @_ZNSt14_Optional_baseIN4llvm23DbgVariableFragmentInfoELb1ELb1EEC2IJS1_ETnNSt9enable_ifIX18is_constructible_vIS1_DpT_EEbE4typeELb0EEESt10in_place_tDpOS5_(ptr noundef nonnull align 8 dereferenceable(24) %5, ptr noundef nonnull align 8 dereferenceable(16) %6)
  ret void
}

; Function Attrs: mustprogress nounwind uwtable
define linkonce_odr hidden void @_ZN4llvm23DbgVariableFragmentInfoC2Emm(ptr noundef nonnull align 8 dereferenceable(16) %0, i64 noundef %1, i64 noundef %2) unnamed_addr #1 comdat align 2 {
  %4 = alloca ptr, align 8
  %5 = alloca i64, align 8
  %6 = alloca i64, align 8
  store ptr %0, ptr %4, align 8
  store i64 %1, ptr %5, align 8
  store i64 %2, ptr %6, align 8
  %7 = load ptr, ptr %4, align 8
  %8 = getelementptr inbounds nuw %"struct.llvm::DbgVariableFragmentInfo", ptr %7, i32 0, i32 0
  %9 = load i64, ptr %5, align 8
  store i64 %9, ptr %8, align 8
  %10 = getelementptr inbounds nuw %"struct.llvm::DbgVariableFragmentInfo", ptr %7, i32 0, i32 1
  %11 = load i64, ptr %6, align 8
  store i64 %11, ptr %10, align 8
  ret void
}

; Function Attrs: mustprogress nounwind uwtable
define linkonce_odr hidden noundef i64 @_ZNK4llvm12DIExpression11ExprOperand6getArgEj(ptr noundef nonnull align 8 dereferenceable(8) %0, i32 noundef %1) #1 comdat align 2 {
  %3 = alloca ptr, align 8
  %4 = alloca i32, align 4
  store ptr %0, ptr %3, align 8
  store i32 %1, ptr %4, align 4
  %5 = load ptr, ptr %3, align 8
  %6 = getelementptr inbounds nuw %"class.llvm::DIExpression::ExprOperand", ptr %5, i32 0, i32 0
  %7 = load ptr, ptr %6, align 8
  %8 = load i32, ptr %4, align 4
  %9 = add i32 %8, 1
  %10 = zext i32 %9 to i64
  %11 = getelementptr inbounds i64, ptr %7, i64 %10
  %12 = load i64, ptr %11, align 8
  ret i64 %12
}

; Function Attrs: mustprogress nounwind uwtable
define linkonce_odr hidden noundef i64 @_ZNK4llvm12DIExpression11ExprOperand5getOpEv(ptr noundef nonnull align 8 dereferenceable(8) %0) #1 comdat align 2 {
  %2 = alloca ptr, align 8
  store ptr %0, ptr %2, align 8
  %3 = load ptr, ptr %2, align 8
  %4 = getelementptr inbounds nuw %"class.llvm::DIExpression::ExprOperand", ptr %3, i32 0, i32 0
  %5 = load ptr, ptr %4, align 8
  %6 = load i64, ptr %5, align 8
  ret i64 %6
}

; Function Attrs: mustprogress nounwind uwtable
define linkonce_odr hidden noundef ptr @_ZNK4llvm12DIExpression16expr_op_iteratorptEv(ptr noundef nonnull align 8 dereferenceable(8) %0) #1 comdat align 2 {
  %2 = alloca ptr, align 8
  store ptr %0, ptr %2, align 8
  %3 = load ptr, ptr %2, align 8
  %4 = getelementptr inbounds nuw %"class.llvm::DIExpression::expr_op_iterator", ptr %3, i32 0, i32 0
  ret ptr %4
}

; Function Attrs: mustprogress nounwind uwtable
define linkonce_odr hidden noundef zeroext i1 @_ZNK4llvm12DIExpression16expr_op_iteratorneERKS1_(ptr noundef nonnull align 8 dereferenceable(8) %0, ptr noundef nonnull align 8 dereferenceable(8) %1) #1 comdat align 2 {
  %3 = alloca ptr, align 8
  %4 = alloca ptr, align 8
  store ptr %0, ptr %3, align 8
  store ptr %1, ptr %4, align 8
  %5 = load ptr, ptr %3, align 8
  %6 = call noundef ptr @_ZNK4llvm12DIExpression16expr_op_iterator7getBaseEv(ptr noundef nonnull align 8 dereferenceable(8) %5)
  %7 = load ptr, ptr %4, align 8
  %8 = call noundef ptr @_ZNK4llvm12DIExpression16expr_op_iterator7getBaseEv(ptr noundef nonnull align 8 dereferenceable(8) %7)
  %9 = icmp ne ptr %6, %8
  ret i1 %9
}

; Function Attrs: mustprogress nounwind uwtable
define dso_local void @_ZN4llvm12DIExpression15getFragmentInfoENS0_16expr_op_iteratorES1_(ptr dead_on_unwind noalias writable sret(%"class.std::optional") align 8 %0, ptr %1, ptr %2) #1 align 2 {
  %4 = alloca %"class.llvm::DIExpression::expr_op_iterator", align 8
  %5 = alloca %"class.llvm::DIExpression::expr_op_iterator", align 8
  %6 = alloca %"class.llvm::DIExpression::expr_op_iterator", align 8
  %7 = alloca %"struct.llvm::DbgVariableFragmentInfo", align 8
  %8 = getelementptr inbounds nuw %"class.llvm::DIExpression::expr_op_iterator", ptr %4, i32 0, i32 0
  %9 = getelementptr inbounds nuw %"class.llvm::DIExpression::ExprOperand", ptr %8, i32 0, i32 0
  store ptr %1, ptr %9, align 8
  %10 = getelementptr inbounds nuw %"class.llvm::DIExpression::expr_op_iterator", ptr %5, i32 0, i32 0
  %11 = getelementptr inbounds nuw %"class.llvm::DIExpression::ExprOperand", ptr %10, i32 0, i32 0
  store ptr %2, ptr %11, align 8
  call void @llvm.memcpy.p0.p0.i64(ptr align 8 %6, ptr align 8 %4, i64 8, i1 false)
  br label %12

12:                                               ; preds = %24, %3
  %13 = call noundef zeroext i1 @_ZNK4llvm12DIExpression16expr_op_iteratorneERKS1_(ptr noundef nonnull align 8 dereferenceable(8) %6, ptr noundef nonnull align 8 dereferenceable(8) %5)
  br i1 %13, label %14, label %26

14:                                               ; preds = %12
  %15 = call noundef ptr @_ZNK4llvm12DIExpression16expr_op_iteratorptEv(ptr noundef nonnull align 8 dereferenceable(8) %6)
  %16 = call noundef i64 @_ZNK4llvm12DIExpression11ExprOperand5getOpEv(ptr noundef nonnull align 8 dereferenceable(8) %15)
  %17 = icmp eq i64 %16, 4096
  br i1 %17, label %18, label %23

18:                                               ; preds = %14
  %19 = call noundef ptr @_ZNK4llvm12DIExpression16expr_op_iteratorptEv(ptr noundef nonnull align 8 dereferenceable(8) %6)
  %20 = call noundef i64 @_ZNK4llvm12DIExpression11ExprOperand6getArgEj(ptr noundef nonnull align 8 dereferenceable(8) %19, i32 noundef 1)
  %21 = call noundef ptr @_ZNK4llvm12DIExpression16expr_op_iteratorptEv(ptr noundef nonnull align 8 dereferenceable(8) %6)
  %22 = call noundef i64 @_ZNK4llvm12DIExpression11ExprOperand6getArgEj(ptr noundef nonnull align 8 dereferenceable(8) %21, i32 noundef 0)
  call void @_ZN4llvm23DbgVariableFragmentInfoC2Emm(ptr noundef nonnull align 8 dereferenceable(16) %7, i64 noundef %20, i64 noundef %22)
  call void @_ZNSt8optionalIN4llvm23DbgVariableFragmentInfoEEC2IS1_TnNSt9enable_ifIX7__and_vISt6__not_ISt7is_sameIS2_NSt9remove_cvINSt16remove_referenceIT_E4typeEE4typeEEES5_IS6_ISt10in_place_tSD_EESt16is_constructibleIS1_JS9_EESt14is_convertibleIS9_S1_EEEbE4typeELb1EEEOS9_(ptr noundef nonnull align 8 dereferenceable(24) %0, ptr noundef nonnull align 8 dereferenceable(16) %7) #2
  br label %27

23:                                               ; preds = %14
  br label %24

24:                                               ; preds = %23
  %25 = call noundef nonnull align 8 dereferenceable(8) ptr @_ZN4llvm12DIExpression16expr_op_iteratorppEv(ptr noundef nonnull align 8 dereferenceable(8) %6)
  br label %12, !llvm.loop !14

26:                                               ; preds = %12
  call void @_ZNSt8optionalIN4llvm23DbgVariableFragmentInfoEEC2ESt9nullopt_t(ptr noundef nonnull align 8 dereferenceable(24) %0) #2
  br label %27

27:                                               ; preds = %26, %18
  ret void
}