; Function Attrs: mustprogress nofree norecurse nosync nounwind memory(argmem: readwrite) uwtable
define dso_local void @_ZN4llvm12DIExpression15getFragmentInfoENS0_16expr_op_iteratorES1_(ptr dead_on_unwind noalias nocapture writable writeonly sret(%"class.std::optional") align 8 %0, ptr readonly %1, ptr readnone %2) local_unnamed_addr #11 align 2 {
  %.not8 = icmp eq ptr %1, %2
  br i1 %.not8, label %._crit_edge, label %.lr.ph

.lr.ph:                                           ; preds = %3, %_ZN4llvm12DIExpression16expr_op_iteratorppEv.exit
  %.sroa.01.09 = phi ptr [ %16, %_ZN4llvm12DIExpression16expr_op_iteratorppEv.exit ], [ %1, %3 ]
  %4 = load i64, ptr %.sroa.01.09, align 8
  %5 = icmp eq i64 %4, 4096
  br i1 %5, label %6, label %11

6:                                                ; preds = %.lr.ph
  %7 = getelementptr inbounds i8, ptr %.sroa.01.09, i64 16
  %8 = load i64, ptr %7, align 8
  %9 = getelementptr inbounds i8, ptr %.sroa.01.09, i64 8
  %10 = load i64, ptr %9, align 8
  store i64 %8, ptr %0, align 8
  %.sroa.2.0..sroa_idx = getelementptr inbounds i8, ptr %0, i64 8
  store i64 %10, ptr %.sroa.2.0..sroa_idx, align 8
  br label %._crit_edge

11:                                               ; preds = %.lr.ph
  %12 = add i64 %4, -112
  %or.cond.i.i.i = icmp ult i64 %12, 32
  br i1 %or.cond.i.i.i, label %_ZN4llvm12DIExpression16expr_op_iteratorppEv.exit, label %13

13:                                               ; preds = %11
  switch i64 %4, label %15 [
    i64 4097, label %_ZN4llvm12DIExpression16expr_op_iteratorppEv.exit
    i64 4096, label %_ZN4llvm12DIExpression16expr_op_iteratorppEv.exit
    i64 4102, label %_ZN4llvm12DIExpression16expr_op_iteratorppEv.exit
    i64 4103, label %_ZN4llvm12DIExpression16expr_op_iteratorppEv.exit
    i64 146, label %_ZN4llvm12DIExpression16expr_op_iteratorppEv.exit
    i64 16, label %14
    i64 17, label %14
    i64 148, label %14
    i64 35, label %14
    i64 4098, label %14
    i64 4099, label %14
    i64 4101, label %14
    i64 144, label %14
  ]

14:                                               ; preds = %13, %13, %13, %13, %13, %13, %13, %13
  br label %_ZN4llvm12DIExpression16expr_op_iteratorppEv.exit

15:                                               ; preds = %13
  br label %_ZN4llvm12DIExpression16expr_op_iteratorppEv.exit

_ZN4llvm12DIExpression16expr_op_iteratorppEv.exit: ; preds = %11, %13, %13, %13, %13, %13, %14, %15
  %.0.i.i.i = phi i64 [ 1, %15 ], [ 2, %14 ], [ 2, %11 ], [ 3, %13 ], [ 3, %13 ], [ 3, %13 ], [ 3, %13 ], [ 3, %13 ]
  %16 = getelementptr inbounds i64, ptr %.sroa.01.09, i64 %.0.i.i.i
  %.not = icmp eq ptr %16, %2
  br i1 %.not, label %._crit_edge, label %.lr.ph, !llvm.loop !11

._crit_edge:                                      ; preds = %_ZN4llvm12DIExpression16expr_op_iteratorppEv.exit, %3, %6
  %.sink = phi i8 [ 1, %6 ], [ 0, %3 ], [ 0, %_ZN4llvm12DIExpression16expr_op_iteratorppEv.exit ]
  %17 = getelementptr inbounds nuw i8, ptr %0, i64 16
  store i8 %.sink, ptr %17, align 8
  ret void
}